target datalayout = "e-m:e-p270:32:32-p271:32:32-p272:64:64-i64:64-i128:128-f80:128-n8:16:32:64-S128"
target triple = "x86_64-pc-linux-gnu"

%struct.slurm_conf_t = type { i64, ptr, i16, ptr, ptr, ptr, ptr, ptr, i16, ptr, ptr, ptr, ptr, ptr, ptr, ptr, i16, ptr, ptr, ptr, ptr, i16, ptr, ptr, ptr, i64, ptr, ptr, ptr, ptr, i16, ptr, ptr, i16, i32, ptr, i32, ptr, i32, i32, ptr, ptr, i64, i64, ptr, i16, i16, ptr, i32, i32, ptr, i32, ptr, i32, i16, i16, i16, ptr, i16, i16, ptr, ptr, i32, i16, i16, ptr, i32, i16, ptr, ptr, ptr, ptr, i16, ptr, ptr, ptr, ptr, i32, ptr, ptr, ptr, ptr, i16, i16, ptr, i32, i32, i32, i16, i16, ptr, ptr, i16, ptr, ptr, i32, i32, i32, i32, i32, i64, i32, i32, i16, ptr, ptr, i32, ptr, ptr, ptr, i16, i32, ptr, ptr, i16, ptr, ptr, i32, i16, ptr, ptr, ptr, ptr, i32, i32, i16, i16, i32, ptr, i16, ptr, i32, i32, i32, i32, i32, i32, ptr, i16, ptr, ptr, i32, i16, ptr, i32, i16, i16, ptr, ptr, ptr, i16, ptr, ptr, ptr, ptr, i16, i16, ptr, i16, ptr, i16, ptr, i16, ptr, i16, ptr, ptr, ptr, ptr, i16, ptr, ptr, ptr, i32, ptr, i32, ptr, ptr, i16, ptr, ptr, i32, i16, ptr, ptr, i16, i16, ptr, i16, ptr, ptr, ptr, i32, ptr, i16, i16, ptr, ptr, ptr, ptr, ptr, ptr, ptr, ptr, i16, i32, i16, ptr, ptr, ptr, ptr, i32, ptr, ptr, ptr, i16, ptr, ptr, ptr, i16, ptr, i16, ptr, i16, i16, ptr }
%struct.part_record = type { i32, ptr, ptr, ptr, ptr, ptr, ptr, i32, ptr, ptr, ptr, ptr, ptr, i32, i64, i32, ptr, ptr, ptr, ptr, ptr, i32, i32, ptr, i32, i32, i64, i32, i32, i16, i32, i32, i32, i32, ptr, ptr, ptr, ptr, ptr, double, i16, i16, i16, i16, ptr, ptr, i16, i16, i32, i16, i32, i32, i32, i32, i16, ptr, ptr, ptr }
%struct.gs_part = type { ptr, i16, i32, ptr, i32, i32, ptr, i32, i32, ptr, ptr, i16, ptr }
%struct.job_record = type { i32, ptr, ptr, ptr, ptr, i16, i32, i32, i32, ptr, i32, ptr, ptr, i16, ptr, double, i64, ptr, ptr, ptr, ptr, ptr, ptr, i32, ptr, i32, i64, i64, i32, i32, ptr, i16, i64, i64, i8, i32, ptr, ptr, ptr, ptr, ptr, ptr, ptr, ptr, i32, ptr, ptr, i32, ptr, i32, ptr, i32, ptr, i32, ptr, ptr, ptr, ptr, ptr, ptr, i32, i16, i64, ptr, ptr, ptr, ptr, %struct.acct_policy_limit_set_t, i16, ptr, ptr, ptr, ptr, ptr, i32, ptr, ptr, ptr, ptr, ptr, i32, i32, ptr, ptr, ptr, i16, ptr, ptr, i8, ptr, ptr, i64, i64, i8, i32, i32, i8, i32, ptr, i32, i64, i32, ptr, ptr, ptr, i8, i16, i64, i32, ptr, ptr, ptr, ptr, ptr, i16, i32, ptr, ptr, ptr, ptr, i32, ptr, i32, i16, i64, ptr, i32, i32, ptr, i64, ptr, ptr, i64, i32, i32, i64, i32, i32, ptr, ptr, ptr, ptr, ptr, ptr, ptr, ptr, ptr, ptr, ptr, ptr, i32, ptr, i16, i16, i16, i16, ptr, i32, i32, i8, i64 }
%struct.acct_policy_limit_set_t = type { i16, i16, ptr }
%struct.job_resources = type { ptr, ptr, i32, ptr, ptr, ptr, ptr, ptr, i16, ptr, ptr, i32, i32, ptr, i32, ptr, i32, ptr, ptr, ptr, i16, i8 }
%struct.node_record = type { ptr, ptr, i16, i64, i64, ptr, ptr, ptr, i16, ptr, i16, i16, i32, i32, i64, ptr, i16, i16, ptr, ptr, ptr, ptr, ptr, i64, i64, ptr, ptr, ptr, ptr, i32, ptr, ptr, i64, i64, i32, ptr, i64, ptr, i32, i16, ptr, ptr, i32, ptr, i32, i8, ptr, i32, i16, i16, ptr, i16, i64, i16, i64, ptr, i64, i32, i16, i64, i16, ptr, i16, i64, ptr, i64, i16, i32, i16, ptr, ptr, ptr, i16, i32, i16, i16, i32, ptr, i16, i32 }

@slurm_conf = external global %struct.slurm_conf_t, align 8
@gr_type = internal global i16 0, align 2
@.str.17 = private unnamed_addr constant [10 x i8] c"task/none\00", align 1
@node_record_table_ptr = external global ptr, align 8
@.str.41 = private unnamed_addr constant [33 x i8] c"GANG: gang: %s: %d bits conflict\00", align 1
@__func__._job_fits_in_active_row = private unnamed_addr constant [24 x i8] c"_job_fits_in_active_row\00", align 1

; Function Attrs: nounwind uwtable
define internal zeroext i16 @_get_phys_bit_cnt(i32 noundef %0) #0 {
  %2 = alloca i16, align 2
  %3 = alloca i32, align 4
  %4 = alloca ptr, align 8
  %5 = alloca i32, align 4
  store i32 %0, ptr %3, align 4
  call void @llvm.lifetime.start.p0(i64 8, ptr %4) #8
  %6 = load ptr, ptr @node_record_table_ptr, align 8
  %7 = load i32, ptr %3, align 4
  %8 = sext i32 %7 to i64
  %9 = getelementptr inbounds ptr, ptr %6, i64 %8
  %10 = load ptr, ptr %9, align 8
  store ptr %10, ptr %4, align 8
  %11 = load i16, ptr @gr_type, align 2
  %12 = zext i16 %11 to i32
  %13 = icmp eq i32 %12, 3
  br i1 %13, label %14, label %18

14:                                               ; preds = %1
  %15 = load ptr, ptr %4, align 8
  %16 = getelementptr inbounds nuw %struct.node_record, ptr %15, i32 0, i32 16
  %17 = load i16, ptr %16, align 8
  store i16 %17, ptr %2, align 2
  store i32 1, ptr %5, align 4
  br label %22

18:                                               ; preds = %1
  %19 = load ptr, ptr %4, align 8
  %20 = getelementptr inbounds nuw %struct.node_record, ptr %19, i32 0, i32 74
  %21 = load i16, ptr %20, align 8
  store i16 %21, ptr %2, align 2
  store i32 1, ptr %5, align 4
  br label %22

22:                                               ; preds = %18, %14
  call void @llvm.lifetime.end.p0(i64 8, ptr %4) #8
  %23 = load i16, ptr %2, align 2
  ret i16 %23
}

; Function Attrs: nounwind uwtable
define internal i32 @_can_cpus_fit(ptr noundef %0, ptr noundef %1) #0 {
  %3 = alloca i32, align 4
  %4 = alloca ptr, align 8
  %5 = alloca ptr, align 8
  %6 = alloca ptr, align 8
  %7 = alloca ptr, align 8
  %8 = alloca ptr, align 8
  %9 = alloca i32, align 4
  %10 = alloca i32, align 4
  %11 = alloca i32, align 4
  store ptr %0, ptr %4, align 8
  store ptr %1, ptr %5, align 8
  call void @llvm.lifetime.start.p0(i64 8, ptr %6) #8
  call void @llvm.lifetime.start.p0(i64 8, ptr %7) #8
  call void @llvm.lifetime.start.p0(i64 8, ptr %8) #8
  %12 = load ptr, ptr %4, align 8
  %13 = getelementptr inbounds nuw %struct.job_record, ptr %12, i32 0, i32 59
  %14 = load ptr, ptr %13, align 8
  store ptr %14, ptr %8, align 8
  %15 = load i16, ptr @gr_type, align 2
  %16 = zext i16 %15 to i32
  %17 = icmp ne i32 %16, 3
  br i1 %17, label %18, label %19

18:                                               ; preds = %2
  store i32 0, ptr %3, align 4
  store i32 1, ptr %9, align 4
  br label %68

19:                                               ; preds = %2
  %20 = load ptr, ptr %5, align 8
  %21 = getelementptr inbounds nuw %struct.gs_part, ptr %20, i32 0, i32 10
  %22 = load ptr, ptr %21, align 8
  store ptr %22, ptr %6, align 8
  %23 = load ptr, ptr %8, align 8
  %24 = getelementptr inbounds nuw %struct.job_resources, ptr %23, i32 0, i32 5
  %25 = load ptr, ptr %24, align 8
  store ptr %25, ptr %7, align 8
  %26 = load ptr, ptr %6, align 8
  %27 = icmp ne ptr %26, null
  br i1 %27, label %28, label %31

28:                                               ; preds = %19
  %29 = load ptr, ptr %7, align 8
  %30 = icmp ne ptr %29, null
  br i1 %30, label %32, label %31

31:                                               ; preds = %28, %19
  store i32 0, ptr %3, align 4
  store i32 1, ptr %9, align 4
  br label %68

32:                                               ; preds = %28
  call void @llvm.lifetime.start.p0(i64 4, ptr %10) #8
  store i32 0, ptr %10, align 4
  call void @llvm.lifetime.start.p0(i64 4, ptr %11) #8
  store i32 0, ptr %11, align 4
  br label %33

33:                                               ; preds = %62, %32
  %34 = load ptr, ptr %8, align 8
  %35 = getelementptr inbounds nuw %struct.job_resources, ptr %34, i32 0, i32 13
  %36 = load ptr, ptr %35, align 8
  %37 = call ptr @next_node_bitmap(ptr noundef %36, ptr noundef %11)
  %38 = icmp ne ptr %37, null
  br i1 %38, label %40, label %39

39:                                               ; preds = %33
  store i32 2, ptr %9, align 4
  br label %65

40:                                               ; preds = %33
  %41 = load ptr, ptr %6, align 8
  %42 = load i32, ptr %11, align 4
  %43 = sext i32 %42 to i64
  %44 = getelementptr inbounds i16, ptr %41, i64 %43
  %45 = load i16, ptr %44, align 2
  %46 = zext i16 %45 to i32
  %47 = load ptr, ptr %7, align 8
  %48 = load i32, ptr %10, align 4
  %49 = sext i32 %48 to i64
  %50 = getelementptr inbounds i16, ptr %47, i64 %49
  %51 = load i16, ptr %50, align 2
  %52 = zext i16 %51 to i32
  %53 = add nsw i32 %46, %52
  %54 = load i32, ptr %11, align 4
  %55 = call zeroext i16 @_get_phys_bit_cnt(i32 noundef %54)
  %56 = zext i16 %55 to i32
  %57 = icmp sgt i32 %53, %56
  br i1 %57, label %58, label %59

58:                                               ; preds = %40
  store i32 0, ptr %3, align 4
  store i32 1, ptr %9, align 4
  br label %65

59:                                               ; preds = %40
  %60 = load i32, ptr %10, align 4
  %61 = add nsw i32 %60, 1
  store i32 %61, ptr %10, align 4
  br label %62

62:                                               ; preds = %59
  %63 = load i32, ptr %11, align 4
  %64 = add nsw i32 %63, 1
  store i32 %64, ptr %11, align 4
  br label %33, !llvm.loop !45

65:                                               ; preds = %58, %39
  call void @llvm.lifetime.end.p0(i64 4, ptr %11) #8
  call void @llvm.lifetime.end.p0(i64 4, ptr %10) #8
  %66 = load i32, ptr %9, align 4
  switch i32 %66, label %68 [
    i32 2, label %67
  ]

67:                                               ; preds = %65
  store i32 1, ptr %3, align 4
  store i32 1, ptr %9, align 4
  br label %68

68:                                               ; preds = %67, %65, %31, %18
  call void @llvm.lifetime.end.p0(i64 8, ptr %8) #8
  call void @llvm.lifetime.end.p0(i64 8, ptr %7) #8
  call void @llvm.lifetime.end.p0(i64 8, ptr %6) #8
  %69 = load i32, ptr %3, align 4
  ret i32 %69
}

; Function Attrs: nounwind uwtable
define internal zeroext i16 @_get_part_gr_type(ptr noundef %0) #0 {
  %2 = alloca i16, align 2
  %3 = alloca ptr, align 8
  store ptr %0, ptr %3, align 8
  %4 = load ptr, ptr %3, align 8
  %5 = icmp ne ptr %4, null
  br i1 %5, label %6, label %36

6:                                                ; preds = %1
  %7 = load ptr, ptr %3, align 8
  %8 = getelementptr inbounds nuw %struct.part_record, ptr %7, i32 0, i32 54
  %9 = load i16, ptr %8, align 4
  %10 = zext i16 %9 to i32
  %11 = and i32 %10, 4
  %12 = icmp ne i32 %11, 0
  br i1 %12, label %13, label %14

13:                                               ; preds = %6
  store i16 2, ptr %2, align 2
  br label %38

14:                                               ; preds = %6
  %15 = load ptr, ptr %3, align 8
  %16 = getelementptr inbounds nuw %struct.part_record, ptr %15, i32 0, i32 54
  %17 = load i16, ptr %16, align 4
  %18 = zext i16 %17 to i32
  %19 = and i32 %18, 1
  %20 = icmp ne i32 %19, 0
  br i1 %20, label %21, label %27

21:                                               ; preds = %14
  %22 = load ptr, ptr getelementptr inbounds nuw (%struct.slurm_conf_t, ptr @slurm_conf, i32 0, i32 210), align 8
  %23 = call i32 @xstrcmp(ptr noundef %22, ptr noundef @.str.17)
  %24 = icmp ne i32 %23, 0
  br i1 %24, label %26, label %25

25:                                               ; preds = %21
  store i16 3, ptr %2, align 2
  br label %38

26:                                               ; preds = %21
  store i16 4, ptr %2, align 2
  br label %38

27:                                               ; preds = %14
  %28 = load ptr, ptr %3, align 8
  %29 = getelementptr inbounds nuw %struct.part_record, ptr %28, i32 0, i32 54
  %30 = load i16, ptr %29, align 4
  %31 = zext i16 %30 to i32
  %32 = and i32 %31, 2
  %33 = icmp ne i32 %32, 0
  br i1 %33, label %34, label %35

34:                                               ; preds = %27
  store i16 1, ptr %2, align 2
  br label %38

35:                                               ; preds = %27
  br label %36

36:                                               ; preds = %35, %1
  %37 = load i16, ptr @gr_type, align 2
  store i16 %37, ptr %2, align 2
  br label %38

38:                                               ; preds = %36, %34, %26, %25, %13
  %39 = load i16, ptr %2, align 2
  ret i16 %39
}

; Function Attrs: nounwind uwtable
define internal i32 @_job_fits_in_active_row(ptr noundef %0, ptr noundef %1) #0 {
  %3 = alloca i32, align 4
  %4 = alloca ptr, align 8
  %5 = alloca ptr, align 8
  %6 = alloca ptr, align 8
  %7 = alloca i32, align 4
  %8 = alloca ptr, align 8
  %9 = alloca i16, align 2
  %10 = alloca i32, align 4
  store ptr %0, ptr %4, align 8
  store ptr %1, ptr %5, align 8
  call void @llvm.lifetime.start.p0(i64 8, ptr %6) #8
  %11 = load ptr, ptr %4, align 8
  %12 = getelementptr inbounds nuw %struct.job_record, ptr %11, i32 0, i32 59
  %13 = load ptr, ptr %12, align 8
  store ptr %13, ptr %6, align 8
  call void @llvm.lifetime.start.p0(i64 4, ptr %7) #8
  call void @llvm.lifetime.start.p0(i64 8, ptr %8) #8
  call void @llvm.lifetime.start.p0(i64 2, ptr %9) #8
  %14 = load ptr, ptr %5, align 8
  %15 = getelementptr inbounds nuw %struct.gs_part, ptr %14, i32 0, i32 9
  %16 = load ptr, ptr %15, align 8
  %17 = icmp eq ptr %16, null
  br i1 %17, label %23, label %18

18:                                               ; preds = %2
  %19 = load ptr, ptr %5, align 8
  %20 = getelementptr inbounds nuw %struct.gs_part, ptr %19, i32 0, i32 8
  %21 = load i32, ptr %20, align 4
  %22 = icmp eq i32 %21, 0
  br i1 %22, label %23, label %24

23:                                               ; preds = %18, %2
  store i32 1, ptr %3, align 4
  store i32 1, ptr %10, align 4
  br label %92

24:                                               ; preds = %18
  %25 = load ptr, ptr %4, align 8
  %26 = getelementptr inbounds nuw %struct.job_record, ptr %25, i32 0, i32 89
  %27 = load ptr, ptr %26, align 8
  %28 = call zeroext i16 @_get_part_gr_type(ptr noundef %27)
  store i16 %28, ptr %9, align 2
  %29 = load i16, ptr %9, align 2
  %30 = zext i16 %29 to i32
  %31 = icmp eq i32 %30, 4
  br i1 %31, label %40, label %32

32:                                               ; preds = %24
  %33 = load i16, ptr %9, align 2
  %34 = zext i16 %33 to i32
  %35 = icmp eq i32 %34, 2
  br i1 %35, label %40, label %36

36:                                               ; preds = %32
  %37 = load i16, ptr %9, align 2
  %38 = zext i16 %37 to i32
  %39 = icmp eq i32 %38, 1
  br i1 %39, label %40, label %46

40:                                               ; preds = %36, %32, %24
  %41 = load ptr, ptr %6, align 8
  %42 = load ptr, ptr %5, align 8
  %43 = getelementptr inbounds nuw %struct.gs_part, ptr %42, i32 0, i32 9
  %44 = load ptr, ptr %43, align 8
  %45 = call i32 @job_fits_into_cores(ptr noundef %41, ptr noundef %44)
  store i32 %45, ptr %3, align 4
  store i32 1, ptr %10, align 4
  br label %92

46:                                               ; preds = %36
  %47 = load ptr, ptr %6, align 8
  %48 = getelementptr inbounds nuw %struct.job_resources, ptr %47, i32 0, i32 13
  %49 = load ptr, ptr %48, align 8
  %50 = call ptr @bit_copy(ptr noundef %49)
  store ptr %50, ptr %8, align 8
  %51 = load ptr, ptr %8, align 8
  %52 = load ptr, ptr %5, align 8
  %53 = getelementptr inbounds nuw %struct.gs_part, ptr %52, i32 0, i32 9
  %54 = load ptr, ptr %53, align 8
  call void @bit_and(ptr noundef %51, ptr noundef %54)
  %55 = load ptr, ptr %8, align 8
  %56 = call i32 @bit_set_count(ptr noundef %55)
  store i32 %56, ptr %7, align 4
  br label %57

57:                                               ; preds = %46
  %58 = load i64, ptr getelementptr inbounds nuw (%struct.slurm_conf_t, ptr @slurm_conf, i32 0, i32 42), align 8
  %59 = and i64 %58, 8192
  %60 = icmp ne i64 %59, 0
  br i1 %60, label %61, label %70

61:                                               ; preds = %57
  br label %62

62:                                               ; preds = %61
  %63 = call i32 @get_log_level()
  %64 = icmp sge i32 %63, 4
  br i1 %64, label %65, label %67

65:                                               ; preds = %62
  %66 = load i32, ptr %7, align 4
  call void (i32, ptr, ...) @log_var(i32 noundef 4, ptr noundef @.str.41, ptr noundef @__func__._job_fits_in_active_row, i32 noundef %66)
  br label %67

67:                                               ; preds = %65, %62
  br label %68

68:                                               ; preds = %67
  br label %69

69:                                               ; preds = %68
  br label %70

70:                                               ; preds = %69, %57
  br label %71

71:                                               ; preds = %70
  br label %72

72:                                               ; preds = %71
  br label %73

73:                                               ; preds = %72
  %74 = load ptr, ptr %8, align 8
  %75 = icmp ne ptr %74, null
  br i1 %75, label %76, label %77

76:                                               ; preds = %73
  call void @slurm_bit_free(ptr noundef %8)
  br label %77

77:                                               ; preds = %76, %73
  store ptr null, ptr %8, align 8
  br label %78

78:                                               ; preds = %77
  br label %79

79:                                               ; preds = %78
  %80 = load i32, ptr %7, align 4
  %81 = icmp eq i32 %80, 0
  br i1 %81, label %82, label %83

82:                                               ; preds = %79
  store i32 1, ptr %3, align 4
  store i32 1, ptr %10, align 4
  br label %92

83:                                               ; preds = %79
  %84 = load i16, ptr %9, align 2
  %85 = zext i16 %84 to i32
  %86 = icmp eq i32 %85, 3
  br i1 %86, label %87, label %91

87:                                               ; preds = %83
  %88 = load ptr, ptr %4, align 8
  %89 = load ptr, ptr %5, align 8
  %90 = call i32 @_can_cpus_fit(ptr noundef %88, ptr noundef %89)
  store i32 %90, ptr %3, align 4
  store i32 1, ptr %10, align 4
  br label %92

91:                                               ; preds = %83
  store i32 0, ptr %3, align 4
  store i32 1, ptr %10, align 4
  br label %92

92:                                               ; preds = %91, %87, %82, %40, %23
  call void @llvm.lifetime.end.p0(i64 2, ptr %9) #8
  call void @llvm.lifetime.end.p0(i64 8, ptr %8) #8
  call void @llvm.lifetime.end.p0(i64 4, ptr %7) #8
  call void @llvm.lifetime.end.p0(i64 8, ptr %6) #8
  %93 = load i32, ptr %3, align 4
  ret i32 %93
}