; Function Attrs: nounwind uwtable
define internal fastcc i32 @_job_fits_in_active_row(ptr noundef readonly captures(none) %0, ptr noundef nonnull readonly captures(none) %1) unnamed_addr #0 {
  %3 = alloca i32, align 4
  %4 = alloca ptr, align 8
  %5 = getelementptr inbounds nuw i8, ptr %0, i64 440
  %6 = load ptr, ptr %5, align 8
  call void @llvm.lifetime.start.p0(i64 8, ptr nonnull %4) #8
  %7 = getelementptr inbounds nuw i8, ptr %1, i64 48
  %8 = load ptr, ptr %7, align 8
  %9 = icmp eq ptr %8, null
  br i1 %9, label %_can_cpus_fit.exit, label %10

10:                                               ; preds = %2
  %11 = getelementptr inbounds nuw i8, ptr %1, i64 44
  %12 = load i32, ptr %11, align 4
  %13 = icmp eq i32 %12, 0
  br i1 %13, label %_can_cpus_fit.exit, label %14

14:                                               ; preds = %10
  %15 = getelementptr inbounds nuw i8, ptr %0, i64 672
  %16 = load ptr, ptr %15, align 8
  %.not.i = icmp eq ptr %16, null
  br i1 %.not.i, label %_get_part_gr_type.exit, label %17

17:                                               ; preds = %14
  %18 = getelementptr inbounds nuw i8, ptr %16, i64 332
  %19 = load i16, ptr %18, align 4
  %20 = zext i16 %19 to i32
  %21 = and i32 %20, 4
  %.not5.i = icmp eq i32 %21, 0
  br i1 %.not5.i, label %22, label %_get_part_gr_type.exit.thread

22:                                               ; preds = %17
  %23 = and i32 %20, 1
  %.not6.i = icmp eq i32 %23, 0
  br i1 %.not6.i, label %27, label %24

24:                                               ; preds = %22
  %25 = load ptr, ptr getelementptr inbounds nuw (i8, ptr @slurm_conf, i64 1416), align 8
  %26 = tail call i32 @xstrcmp(ptr noundef %25, ptr noundef nonnull @.str.17) #8
  %.not8.i = icmp eq i32 %26, 0
  br i1 %.not8.i, label %_get_part_gr_type.exit.thread25, label %._get_part_gr_type.exit.thread_crit_edge

._get_part_gr_type.exit.thread_crit_edge:         ; preds = %24
  %.pre = load ptr, ptr %7, align 8
  br label %_get_part_gr_type.exit.thread

27:                                               ; preds = %22
  %28 = and i32 %20, 2
  %.not7.i = icmp eq i32 %28, 0
  br i1 %.not7.i, label %_get_part_gr_type.exit, label %_get_part_gr_type.exit.thread

_get_part_gr_type.exit:                           ; preds = %14, %27
  %29 = load i16, ptr @gr_type, align 2
  switch i16 %29, label %_get_part_gr_type.exit.thread25 [
    i16 4, label %_get_part_gr_type.exit.thread
    i16 2, label %_get_part_gr_type.exit.thread
    i16 1, label %_get_part_gr_type.exit.thread
  ]

_get_part_gr_type.exit.thread:                    ; preds = %._get_part_gr_type.exit.thread_crit_edge, %27, %17, %_get_part_gr_type.exit, %_get_part_gr_type.exit, %_get_part_gr_type.exit
  %30 = phi ptr [ %.pre, %._get_part_gr_type.exit.thread_crit_edge ], [ %8, %27 ], [ %8, %17 ], [ %8, %_get_part_gr_type.exit ], [ %8, %_get_part_gr_type.exit ], [ %8, %_get_part_gr_type.exit ]
  %31 = tail call i32 @job_fits_into_cores(ptr noundef %6, ptr noundef %30) #8
  br label %_can_cpus_fit.exit

_get_part_gr_type.exit.thread25:                  ; preds = %24, %_get_part_gr_type.exit
  %.0.i27 = phi i16 [ %29, %_get_part_gr_type.exit ], [ 3, %24 ]
  %32 = getelementptr inbounds nuw i8, ptr %6, i64 96
  %33 = load ptr, ptr %32, align 8
  %34 = tail call ptr @bit_copy(ptr noundef %33) #8
  store ptr %34, ptr %4, align 8
  %35 = load ptr, ptr %7, align 8
  tail call void @bit_and(ptr noundef %34, ptr noundef %35) #8
  %36 = tail call i32 @bit_set_count(ptr noundef %34) #8
  %37 = load i64, ptr getelementptr inbounds nuw (i8, ptr @slurm_conf, i64 320), align 8
  %38 = and i64 %37, 8192
  %.not = icmp eq i64 %38, 0
  br i1 %.not, label %43, label %39

39:                                               ; preds = %_get_part_gr_type.exit.thread25
  %40 = tail call i32 @get_log_level() #8
  %41 = icmp sgt i32 %40, 3
  br i1 %41, label %42, label %43

42:                                               ; preds = %39
  tail call void (i32, ptr, ...) @log_var(i32 noundef 4, ptr noundef nonnull @.str.41, ptr noundef nonnull @__func__._job_fits_in_active_row, i32 noundef %36) #8
  br label %43

43:                                               ; preds = %_get_part_gr_type.exit.thread25, %42, %39
  %.not22 = icmp eq ptr %34, null
  br i1 %.not22, label %45, label %44

44:                                               ; preds = %43
  call void @slurm_bit_free(ptr noundef nonnull %4) #8
  br label %45

45:                                               ; preds = %44, %43
  store ptr null, ptr %4, align 8
  %46 = icmp eq i32 %36, 0
  br i1 %46, label %_can_cpus_fit.exit, label %47

47:                                               ; preds = %45
  %48 = icmp eq i16 %.0.i27, 3
  br i1 %48, label %49, label %_can_cpus_fit.exit

49:                                               ; preds = %47
  %.val = load ptr, ptr %5, align 8
  %50 = load i16, ptr @gr_type, align 2
  %.not.i23 = icmp eq i16 %50, 3
  br i1 %.not.i23, label %51, label %_can_cpus_fit.exit

51:                                               ; preds = %49
  %52 = getelementptr inbounds nuw i8, ptr %1, i64 56
  %53 = load ptr, ptr %52, align 8
  %54 = getelementptr inbounds nuw i8, ptr %.val, i64 40
  %55 = load ptr, ptr %54, align 8
  %56 = icmp ne ptr %53, null
  %57 = icmp ne ptr %55, null
  %or.cond.i = select i1 %56, i1 %57, i1 false
  br i1 %or.cond.i, label %58, label %_can_cpus_fit.exit

58:                                               ; preds = %51
  call void @llvm.lifetime.start.p0(i64 4, ptr nonnull %3) #8
  %59 = getelementptr inbounds nuw i8, ptr %.val, i64 96
  store i32 0, ptr %3, align 4
  %60 = load ptr, ptr %59, align 8
  %61 = call ptr @next_node_bitmap(ptr noundef %60, ptr noundef nonnull %3) #8
  %.not161.i = icmp eq ptr %61, null
  br i1 %.not161.i, label %._crit_edge.i, label %.lr.ph.i

.lr.ph.i:                                         ; preds = %58, %78
  %indvars.iv.i = phi i64 [ %indvars.iv.next.i, %78 ], [ 0, %58 ]
  %62 = load i32, ptr %3, align 4
  %63 = sext i32 %62 to i64
  %64 = getelementptr inbounds i16, ptr %53, i64 %63
  %65 = load i16, ptr %64, align 2
  %66 = zext i16 %65 to i32
  %67 = getelementptr inbounds nuw i16, ptr %55, i64 %indvars.iv.i
  %68 = load i16, ptr %67, align 2
  %69 = zext i16 %68 to i32
  %70 = add nuw nsw i32 %69, %66
  %71 = load ptr, ptr @node_record_table_ptr, align 8
  %72 = getelementptr inbounds ptr, ptr %71, i64 %63
  %73 = load ptr, ptr %72, align 8
  %74 = load i16, ptr @gr_type, align 2
  %75 = icmp eq i16 %74, 3
  %.0.in.v.i.i = select i1 %75, i64 112, i64 512
  %.0.in.i.i = getelementptr inbounds nuw i8, ptr %73, i64 %.0.in.v.i.i
  %.0.i.i = load i16, ptr %.0.in.i.i, align 8
  %76 = zext i16 %.0.i.i to i32
  %77 = icmp samesign ugt i32 %70, %76
  br i1 %77, label %._crit_edge.i, label %78

78:                                               ; preds = %.lr.ph.i
  %indvars.iv.next.i = add nuw nsw i64 %indvars.iv.i, 1
  %79 = add nsw i32 %62, 1
  store i32 %79, ptr %3, align 4
  %80 = load ptr, ptr %59, align 8
  %81 = call ptr @next_node_bitmap(ptr noundef %80, ptr noundef nonnull %3) #8
  %.not16.i = icmp eq ptr %81, null
  br i1 %.not16.i, label %._crit_edge.i, label %.lr.ph.i, !llvm.loop !43

._crit_edge.i:                                    ; preds = %78, %.lr.ph.i, %58
  %.not16.lcssa.i = phi i32 [ 1, %58 ], [ 1, %78 ], [ 0, %.lr.ph.i ]
  call void @llvm.lifetime.end.p0(i64 4, ptr nonnull %3) #8
  br label %_can_cpus_fit.exit

_can_cpus_fit.exit:                               ; preds = %._crit_edge.i, %51, %49, %47, %45, %2, %10, %_get_part_gr_type.exit.thread
  %.0 = phi i32 [ %31, %_get_part_gr_type.exit.thread ], [ 1, %10 ], [ 1, %2 ], [ 1, %45 ], [ 0, %47 ], [ 0, %49 ], [ 0, %51 ], [ %.not16.lcssa.i, %._crit_edge.i ]
  call void @llvm.lifetime.end.p0(i64 8, ptr nonnull %4) #8
  ret i32 %.0
}